target datalayout = "e-m:e-p270:32:32-p271:32:32-p272:64:64-i64:64-i128:128-f80:128-n8:16:32:64-S128"
target triple = "x86_64-pc-linux-gnu"

%struct.SDL_WindowData = type { ptr, ptr, ptr, ptr, ptr, ptr, ptr, %union.anon, i32, i32, i32, i32, ptr, ptr, ptr, ptr, ptr, ptr, ptr, ptr, ptr, ptr, ptr, ptr, ptr, ptr, %struct.SDL_AtomicInt, ptr, i32, ptr, double, ptr, i32, i32, i32, i32, %struct.anon.3, %struct.anon.4, %struct.anon.5, %struct.anon.6, %struct.anon.7, %struct.anon.8, %struct.anon.9, i32, i32, i32, i64, i32, i32, i8, i8, i8, i8, i8, i8, i8, i8, i8, i8, i8, i8, i8, i8, i32, %struct.wl_list }
%union.anon = type { %struct.anon }
%struct.anon = type { ptr, %union.anon.0, i8 }
%union.anon.0 = type { %struct.anon.2 }
%struct.anon.2 = type { ptr, ptr }
%struct.SDL_AtomicInt = type { i32 }
%struct.anon.3 = type { double, double }
%struct.anon.4 = type { i32, i32, i32, i32 }
%struct.anon.5 = type { i32, i32, i32, i32 }
%struct.anon.6 = type { i32, i32 }
%struct.anon.7 = type { i32, i32 }
%struct.anon.8 = type { i32, i32 }
%struct.anon.9 = type { i32, i32, i8 }
%struct.wl_list = type { ptr, ptr }

@WAYLAND_wl_proxy_get_version = external global ptr, align 8
@WAYLAND_wl_proxy_marshal_flags = external global ptr, align 8

; Function Attrs: inlinehint nounwind uwtable
define internal void @xdg_surface_ack_configure(ptr noundef %0, i32 noundef %1) #4 {
  %3 = alloca ptr, align 8
  %4 = alloca i32, align 4
  store ptr %0, ptr %3, align 8
  store i32 %1, ptr %4, align 4
  %5 = load ptr, ptr @WAYLAND_wl_proxy_marshal_flags, align 8
  %6 = load ptr, ptr %3, align 8
  %7 = load ptr, ptr @WAYLAND_wl_proxy_get_version, align 8
  %8 = load ptr, ptr %3, align 8
  %9 = call i32 %7(ptr noundef %8)
  %10 = load i32, ptr %4, align 4
  %11 = call ptr (ptr, i32, ptr, i32, i32, ...) %5(ptr noundef %6, i32 noundef 4, ptr noundef null, i32 noundef %9, i32 noundef 0, i32 noundef %10)
  ret void
}

; Function Attrs: nounwind uwtable
define internal void @handle_configure_xdg_shell_surface(ptr noundef %0, ptr noundef %1, i32 noundef %2) #0 {
  %4 = alloca ptr, align 8
  %5 = alloca ptr, align 8
  %6 = alloca i32, align 4
  %7 = alloca ptr, align 8
  %8 = alloca ptr, align 8
  store ptr %0, ptr %4, align 8
  store ptr %1, ptr %5, align 8
  store i32 %2, ptr %6, align 4
  call void @llvm.lifetime.start.p0(i64 8, ptr %7) #10
  %9 = load ptr, ptr %4, align 8
  store ptr %9, ptr %7, align 8
  call void @llvm.lifetime.start.p0(i64 8, ptr %8) #10
  %10 = load ptr, ptr %7, align 8
  %11 = getelementptr inbounds nuw %struct.SDL_WindowData, ptr %10, i32 0, i32 0
  %12 = load ptr, ptr %11, align 8
  store ptr %12, ptr %8, align 8
  %13 = load ptr, ptr %8, align 8
  %14 = call zeroext i1 @ConfigureWindowGeometry(ptr noundef %13)
  br i1 %14, label %15, label %18

15:                                               ; preds = %3
  %16 = load ptr, ptr %5, align 8
  %17 = load i32, ptr %6, align 4
  call void @xdg_surface_ack_configure(ptr noundef %16, i32 noundef %17)
  br label %18

18:                                               ; preds = %15, %3
  %19 = load ptr, ptr %7, align 8
  %20 = getelementptr inbounds nuw %struct.SDL_WindowData, ptr %19, i32 0, i32 7
  %21 = getelementptr inbounds nuw %struct.anon, ptr %20, i32 0, i32 2
  store i8 1, ptr %21, align 8
  call void @llvm.lifetime.end.p0(i64 8, ptr %8) #10
  call void @llvm.lifetime.end.p0(i64 8, ptr %7) #10
  ret void
}