; Function Attrs: nounwind uwtable
define internal void @handle_configure_xdg_shell_surface(ptr noundef captures(none) initializes((80, 81)) %0, ptr noundef %1, i32 noundef %2) #0 {
  %4 = load ptr, ptr %0, align 8
  %5 = tail call fastcc zeroext i1 @ConfigureWindowGeometry(ptr noundef %4)
  br i1 %5, label %6, label %11

6:                                                ; preds = %3
  %7 = load ptr, ptr @WAYLAND_wl_proxy_marshal_flags, align 8
  %8 = load ptr, ptr @WAYLAND_wl_proxy_get_version, align 8
  %9 = tail call i32 %8(ptr noundef %1) #15
  %10 = tail call ptr (ptr, i32, ptr, i32, i32, ...) %7(ptr noundef %1, i32 noundef 4, ptr noundef null, i32 noundef %9, i32 noundef 0, i32 noundef %2) #15
  br label %11

11:                                               ; preds = %6, %3
  %12 = getelementptr inbounds nuw i8, ptr %0, i64 80
  store i8 1, ptr %12, align 8
  ret void
}